; Function Attrs: null_pointer_is_valid sspstrong uwtable
define void @epan_dissect_prime_with_hfid_array(ptr noundef readonly captures(none) %0, ptr noundef readonly captures(none) %1) local_unnamed_addr #6 {
  %3 = getelementptr inbounds nuw i8, ptr %1, i64 8
  %4 = load i32, ptr %3, align 8
  %.not = icmp eq i32 %4, 0
  br i1 %.not, label %._crit_edge, label %.lr.ph

.lr.ph:                                           ; preds = %2
  %5 = getelementptr inbounds nuw i8, ptr %0, i64 16
  br label %6

6:                                                ; preds = %.lr.ph, %6
  %indvars.iv = phi i64 [ 0, %.lr.ph ], [ %indvars.iv.next, %6 ]
  %7 = load ptr, ptr %5, align 8
  %8 = load ptr, ptr %1, align 8
  %9 = getelementptr i32, ptr %8, i64 %indvars.iv
  %10 = load i32, ptr %9, align 4
  tail call void @proto_tree_prime_with_hfid(ptr noundef %7, i32 noundef %10)
  %indvars.iv.next = add nuw nsw i64 %indvars.iv, 1
  %11 = load i32, ptr %3, align 8
  %12 = zext i32 %11 to i64
  %13 = icmp samesign ult i64 %indvars.iv.next, %12
  br i1 %13, label %6, label %._crit_edge, !llvm.loop !8

._crit_edge:                                      ; preds = %6, %2
  ret void
}